; Function Attrs: mustprogress uwtable
define noundef zeroext i1 @_ZNK6icu_7514SimpleTimeZoneeqERKNS_8TimeZoneE(ptr noundef nonnull align 8 dereferenceable(160) %this, ptr noundef nonnull align 8 dereferenceable(72) %that) unnamed_addr #1 align 2 {
entry:
  %cmp = icmp eq ptr %this, %that
  br i1 %cmp, label %lor.end, label %typeid.end

typeid.end:                                       ; preds = %entry
  %vtable = load ptr, ptr %this, align 8
  %0 = getelementptr inbounds i8, ptr %vtable, i64 -8
  %1 = load ptr, ptr %0, align 8
  %vtable2 = load ptr, ptr %that, align 8
  %2 = getelementptr inbounds i8, ptr %vtable2, i64 -8
  %3 = load ptr, ptr %2, align 8
  %__name.i = getelementptr inbounds i8, ptr %1, i64 8
  %4 = load ptr, ptr %__name.i, align 8
  %__name2.i = getelementptr inbounds i8, ptr %3, i64 8
  %5 = load ptr, ptr %__name2.i, align 8
  %cmp.i = icmp eq ptr %4, %5
  br i1 %cmp.i, label %land.lhs.true, label %if.end.i

if.end.i:                                         ; preds = %typeid.end
  %6 = load i8, ptr %4, align 1
  %cmp4.not.i = icmp eq i8 %6, 42
  br i1 %cmp4.not.i, label %lor.end, label %_ZNKSt9type_infoeqERKS_.exit

_ZNKSt9type_infoeqERKS_.exit:                     ; preds = %if.end.i
  %7 = load i8, ptr %5, align 1
  %cmp.i.i = icmp eq i8 %7, 42
  %cond.idx.i.i = zext i1 %cmp.i.i to i64
  %cond.i.i = getelementptr inbounds i8, ptr %5, i64 %cond.idx.i.i
  %call6.i = tail call i32 @strcmp(ptr noundef nonnull dereferenceable(1) %4, ptr noundef nonnull dereferenceable(1) %cond.i.i) #13
  %cmp7.i = icmp eq i32 %call6.i, 0
  br i1 %cmp7.i, label %land.lhs.true, label %lor.end

land.lhs.true:                                    ; preds = %typeid.end, %_ZNKSt9type_infoeqERKS_.exit
  %call3 = tail call noundef zeroext i1 @_ZNK6icu_758TimeZoneeqERKS0_(ptr noundef nonnull align 8 dereferenceable(72) %this, ptr noundef nonnull align 8 dereferenceable(72) %that)
  br i1 %call3, label %land.rhs, label %lor.end

land.rhs:                                         ; preds = %land.lhs.true
  %vtable4 = load ptr, ptr %this, align 8
  %vfn = getelementptr inbounds i8, ptr %vtable4, i64 88
  %8 = load ptr, ptr %vfn, align 8
  %call5 = tail call noundef signext i8 %8(ptr noundef nonnull align 8 dereferenceable(160) %this, ptr noundef nonnull align 8 dereferenceable(72) %that)
  %tobool = icmp ne i8 %call5, 0
  br label %lor.end

lor.end:                                          ; preds = %if.end.i, %_ZNKSt9type_infoeqERKS_.exit, %land.lhs.true, %land.rhs, %entry
  %9 = phi i1 [ true, %entry ], [ false, %land.lhs.true ], [ false, %_ZNKSt9type_infoeqERKS_.exit ], [ %tobool, %land.rhs ], [ false, %if.end.i ]
  ret i1 %9
}